target datalayout = "e-m:e-p270:32:32-p271:32:32-p272:64:64-i64:64-i128:128-f80:128-n8:16:32:64-S128"
target triple = "x86_64-pc-linux-gnu"

%"class.gmx::AnalysisDataProxy" = type <{ %"class.gmx::AbstractAnalysisData", %"class.gmx::IAnalysisDataModule", ptr, i32, i32, i8, [7 x i8] }>
%"class.gmx::AbstractAnalysisData" = type { ptr, %"class.std::unique_ptr" }
%"class.std::unique_ptr" = type { %"struct.std::__uniq_ptr_data" }
%"struct.std::__uniq_ptr_data" = type { %"class.std::__uniq_ptr_impl" }
%"class.std::__uniq_ptr_impl" = type { %"class.std::tuple" }
%"class.std::tuple" = type { %"struct.std::_Tuple_impl" }
%"struct.std::_Tuple_impl" = type { %"struct.std::_Head_base.4" }
%"struct.std::_Head_base.4" = type { ptr }
%"class.gmx::IAnalysisDataModule" = type { ptr }

; Function Attrs: mustprogress uwtable
define noundef i32 @_ZNK3gmx17AnalysisDataProxy10frameCountEv(ptr noundef nonnull align 8 dereferenceable(41) %0) unnamed_addr #1 align 2 {
  %2 = alloca ptr, align 8
  store ptr %0, ptr %2, align 8
  %3 = load ptr, ptr %2, align 8
  %4 = getelementptr inbounds %"class.gmx::AnalysisDataProxy", ptr %3, i32 0, i32 2
  %5 = load ptr, ptr %4, align 8
  %6 = load ptr, ptr %5, align 8
  %7 = getelementptr inbounds ptr, ptr %6, i64 2
  %8 = load ptr, ptr %7, align 8
  %9 = call noundef i32 %8(ptr noundef nonnull align 8 dereferenceable(16) %5)
  ret i32 %9
}